; Function Attrs: mustprogress nofree norecurse nosync nounwind willreturn memory(read, inaccessiblemem: none) uwtable
define noundef ptr @_ZNK9AtomProxy11residueNameEv(ptr nocapture noundef nonnull readonly align 8 dereferenceable(8) %0) local_unnamed_addr #2 align 2 {
  %2 = load ptr, ptr %0, align 8
  %3 = getelementptr inbounds i8, ptr %2, i64 16
  %4 = load ptr, ptr %3, align 8
  %5 = getelementptr inbounds i8, ptr %4, i64 8
  %6 = load ptr, ptr %5, align 8
  %7 = getelementptr inbounds i8, ptr %2, i64 32
  %8 = load i32, ptr %7, align 8
  %9 = sext i32 %8 to i64
  %10 = getelementptr inbounds %struct.t_atom, ptr %6, i64 %9, i32 7
  %11 = load i32, ptr %10, align 4
  %12 = getelementptr inbounds i8, ptr %4, i64 48
  %13 = load ptr, ptr %12, align 8
  %14 = sext i32 %11 to i64
  %15 = getelementptr inbounds %struct.t_resinfo, ptr %13, i64 %14
  %16 = load ptr, ptr %15, align 8
  %17 = load ptr, ptr %16, align 8
  ret ptr %17
}